(dp1
S'sleep'
p2
I0
sS'hanging'
p3
I1
sS'hate'
p4
I3
sS'consider'
p5
I954
sS'increase'
p6
I766
sS'deathspotter'
p7
I6
sS'under'
p8
I8
sS'sorry'
p9
I9
sS'pride'
p10
I10
sS'worth'
p11
I11
sS'swivel'
p12
I13
sS'rescue'
p13
I14
sS'blanket'
p14
I15
sS'every'
p15
I16
sS'bringing'
p16
I17
sS'tickets'
p17
I18
sS'wooden'
p18
I19
sS'cause'
p19
I1904
sS'companies'
p20
I21
sS'delightfully'
p21
I22
sS'heading'
p22
I23
sS'clothes'
p23
I24
sS'enjoy'
p24
I25
sS'awake'
p25
I2256
sS'surrounding'
p26
I27
sS'rusty'
p27
I28
sS'street'
p28
I29
sS'filletin'
p29
I30
sS'floordrobe'
p30
I31
sS'even'
p31
I32
sS'hide'
p32
I33
sS'weren'
p33
I34
sS'poison'
p34
I35
sS'lights'
p35
I36
sS'minty'
p36
I288
sS'above'
p37
I38
sS'blur'
p38
I39
sS'new'
p39
I40
sS'net'
p40
I41
sS'ever'
p41
I42
sS'crouch'
p42
I43
sS'screams'
p43
I44
sS'never'
p44
I45
sS'here'
p45
I46
sS'met'
p46
I47
sS'hers'
p47
I48
sS'path'
p48
I49
sS'stares'
p49
I50
sS'cardboard'
p50
I51
sS'jams'
p51
I52
sS'rests'
p52
I53
sS'items'
p53
I54
sS'leaves'
p54
I55
sS'changed'
p55
I56
sS'completely'
p56
I1908
sS'ignoring'
p57
I58
sS'buckles'
p58
I59
sS'smoke'
p59
I60
sS'punishment'
p60
I61
sS'golden'
p61
I62
sS'prints'
p62
I63
sS'campaign'
p63
I64
sS'slices'
p64
I65
sS'visibly'
p65
I66
sS'glance'
p66
I2265
sS'sarah'
p67
I67
sS'plow'
p68
I68
sS'swings'
p69
I69
sS'would'
p70
I70
sS'occupying'
p71
I71
sS'music'
p72
I72
sS'centre'
p73
I1966
sS'survive'
p74
I73
sS'until'
p75
I74
sS'breathe'
p76
I75
sS'dumped'
p77
I76
sS'lungs'
p78
I77
sS'relax'
p79
I78
sS'haha'
p80
I79
sS'hurt'
p81
I80
sS'phone'
p82
I81
sS'warm'
p83
I82
sS'hold'
p84
I83
sS'blocking'
p85
I84
sS'circumstances'
p86
I85
sS'me'
p87
I86
sS'locked'
p88
I87
sS'room'
p89
I88
sS'shame'
p90
I89
sS'work'
p91
I90
sS'worn'
p92
I91
sS'cuddly'
p93
I92
sS'ere'
p94
I612
sS'acught'
p95
I94
sS'era'
p96
I95
sS'henry'
p97
I96
sS'my'
p98
I97
sS'initial'
p99
I1809
sS'joyous'
p100
I652
sS'laughs'
p101
I99
sS'honey'
p102
I100
sS'want'
p103
I101
sS'david'
p104
I2041
sS'risk'
p105
I103
sS'end'
p106
I104
sS'recovery'
p107
I105
sS'turn'
p108
I106
sS'travel'
p109
I107
sS'song'
p110
I1178
sS'damage'
p111
I109
sS'comedians'
p112
I110
sS'machine'
p113
I111
sS'how'
p114
I112
sS'hot'
p115
I113
sS'barstools'
p116
I114
sS'edgy'
p117
I1582
sS'answer'
p118
I115
sS'beach'
p119
I116
sS'pizza'
p120
I117
sS'lal'
p121
I118
sS'after'
p122
I119
sS'delicacy'
p123
I120
sS'modest'
p124
I121
sS'curiosity'
p125
I122
sS'lesbian'
p126
I123
sS'shirt'
p127
I1565
sS'snarling'
p128
I124
sS'attempt'
p129
I125
sS'effective'
p130
I126
sS'wins'
p131
I127
sS'appreciate'
p132
I128
sS'scoffs'
p133
I129
sS'green'
p134
I130
sS'goodbye'
p135
I131
sS'enter'
p136
I132
sS'worst'
p137
I133
sS'order'
p138
I135
sS'wind'
p139
I136
sS'office'
p140
I137
sS'over'
p141
I138
sS'satisfied'
p142
I139
sS'awful'
p143
I1184
sS'talkative'
p144
I142
sS'before'
p145
I143
sS'fit'
p146
I144
sS'somewhere'
p147
I145
sS'highlights'
p148
I146
sS'fix'
p149
I147
sS'better'
p150
I148
sS'understated'
p151
I149
sS'differently'
p152
I150
sS'fade'
p153
I151
sS'carve'
p154
I152
sS'hidden'
p155
I153
sS'then'
p156
I154
sS'them'
p157
I989
sS'combination'
p158
I156
sS'safe'
p159
I157
sS'break'
p160
I158
sS'band'
p161
I159
sS'bang'
p162
I160
sS'they'
p163
I161
sS'one'
p164
I162
sS'bread'
p165
I163
sS'meat'
p166
I164
sS'swaying'
p167
I165
sS'lookth'
p168
I166
sS'each'
p169
I167
sS'went'
p170
I168
sS'meal'
p171
I169
sS'mean'
p172
I170
sS'inserts'
p173
I171
sS'garment'
p174
I172
sS'spider'
p175
I173
sS'used'
p176
I1571
sS'forgot'
p177
I2264
sS'logo'
p178
I175
sS'sounds'
p179
I795
sS'driving'
p180
I177
sS'ha'
p181
I2213
sS'forty'
p182
I178
sS'content'
p183
I179
sS're'
p184
I180
sS'medicine'
p185
I181
sS'surprise'
p186
I182
sS'sliding'
p187
I183
sS'cutest'
p188
I184
sS'whiff'
p189
I185
sS'waddle'
p190
I186
sS'admits'
p191
I187
sS'struggle'
p192
I188
sS'ate'
p193
I189
sS'created'
p194
I190
sS'starts'
p195
I191
sS'days'
p196
I192
sS'isn'
p197
I194
sS'tempting'
p198
I195
sS'onto'
p199
I196
sS'bite'
p200
I197
sS'already'
p201
I198
sS'playfully'
p202
I199
sS'twitches'
p203
I200
sS'oopth'
p204
I201
sS'spinning'
p205
I202
sS'disappearing'
p206
I203
sS'delicious'
p207
I204
sS'wasn'
p208
I205
sS'thick'
p209
I206
sS'lister'
p210
I207
sS'top'
p211
I208
sS'girls'
p212
I209
sS'elevator'
p213
I210
sS'blurts'
p214
I212
sS'2'
I807
sS'too'
p215
I214
sS'wildly'
p216
I215
sS'john'
p217
I216
sS'listen'
p218
I217
sS'ceiling'
p219
I218
sS'collapse'
p220
I219
sS'canned'
p221
I1578
sS'happily'
p222
I220
sS'bouncing'
p223
I221
sS'lunges'
p224
I222
sS'ludicrously'
p225
I223
sS'took'
p226
I224
sS'kept'
p227
I225
sS'brushed'
p228
I226
sS'begins'
p229
I227
sS'distance'
p230
I228
sS'guild'
p231
I229
sS'frankly'
p232
I230
sS'likely'
p233
I231
sS'wielder'
p234
I232
sS'shower'
p235
I233
sS'iron'
p236
I234
sS'tackled'
p237
I235
sS'feeling'
p238
I236
sS'powers'
p239
I237
sS'sees'
p240
I238
sS'navigate'
p241
I239
sS'modern'
p242
I240
sS'ginger'
p243
I241
sS'talking'
p244
I242
sS'seen'
p245
I243
sS'seem'
p246
I244
sS'ocean'
p247
I245
sS'tells'
p248
I246
sS'contents'
p249
I247
sS'ponder'
p250
I248
sS'strength'
p251
I249
sS'responsible'
p252
I250
sS'snow'
p253
I251
sS'sound'
p254
I252
sS'recommended'
p255
I253
sS'causing'
p256
I254
sS'doors'
p257
I255
sS'blue'
p258
I256
sS'though'
p259
I257
sS'distracts'
p260
I258
sS'boardgame'
p261
I259
sS'regular'
p262
I260
sS'mouth'
p263
I261
sS'coin'
p264
I262
sS'don'
p265
I263
sS'snooping'
p266
I264
sS'mushy'
p267
I265
sS'alarm'
p268
I266
sS'camp'
p269
I267
sS'm'
I268
sS'dog'
p270
I269
sS'points'
p271
I270
sS'scream'
p272
I271
sS'urgency'
p273
I272
sS'photograghs'
p274
I273
sS'saying'
p275
I274
sS'hunger'
p276
I275
sS'random'
p277
I276
sS'ending'
p278
I277
sS'pops'
p279
I278
sS'radio'
p280
I279
sS'earth'
p281
I280
sS'finally'
p282
I1242
sS'consciousness'
p283
I282
sS'menu'
p284
I283
sS'explain'
p285
I284
sS'sugar'
p286
I285
sS'excitedly'
p287
I286
sS'folks'
p288
I287
sS'mischievous'
p289
I37
sS'scrubbing'
p290
I289
sS'wearing'
p291
I290
sS'do'
p292
I291
sS'mixture'
p293
I292
sS'professionals'
p294
I824
sS'piosoning'
p295
I294
sS'stow'
p296
I295
sS'stop'
p297
I296
sS'glamorous'
p298
I1942
sS'coast'
p299
I298
sS'pocket'
p300
I299
sS'shutting'
p301
I300
sS'12'
p302
I2274
sS'despite'
p303
I301
sS'knocks'
p304
I302
sS'chutney'
p305
I303
sS'14'
p306
I2273
sS'runs'
p307
I304
sS'bar'
p308
I305
sS'spilling'
p309
I306
sS'guns'
p310
I1209
sS'bag'
p311
I308
sS'bad'
p312
I309
sS'isolation'
p313
I1943
sS'wannabe'
p314
I311
sS'disaster'
p315
I312
sS'nut'
p316
I313
sS'unsurprisingly'
p317
I1211
sS'proclaims'
p318
I315
sS'decided'
p319
I316
sS'fail'
p320
I317
sS'hero'
p321
I318
sS'best'
p322
I319
sS'said'
p323
I320
sS'lots'
p324
I321
sS'away'
p325
I322
sS'rings'
p326
I323
sS'shaved'
p327
I324
sS'mug'
p328
I325
sS'score'
p329
I326
sS'finger'
p330
I327
sS'pets'
p331
I328
sS'hopefully'
p332
I329
sS'approach'
p333
I330
sS'we'
p334
I331
sS'wears'
p335
I332
sS'nature'
p336
I333
sS'lapping'
p337
I334
sS'however'
p338
I335
sS'boss'
p339
I336
sS'drowsy'
p340
I337
sS'kitchen'
p341
I338
sS'cop'
p342
I339
sS'against'
p343
I340
sS'games'
p344
I341
sS'faces'
p345
I342
sS'disappears'
p346
I343
sS'motioning'
p347
I344
sS'widen'
p348
I345
sS'munches'
p349
I346
sS'height'
p350
I347
sS'blonde'
p351
I349
sS'trust'
p352
I350
sS'100'
p353
I351
sS'panel'
p354
I2178
sS'headlights'
p355
I352
sS'aback'
p356
I353
sS'asks'
p357
I354
sS'three'
p358
I355
sS'tiny'
p359
I1235
sS'quickly'
p360
I357
sS'confident'
p361
I358
sS'trigger'
p362
I359
sS'interest'
p363
I360
sS'glace'
p364
I361
sS'idol'
p365
I362
sS'life'
p366
I363
sS'spit'
p367
I364
sS'bladder'
p368
I365
sS'teenagers'
p369
I1953
sS'lift'
p370
I367
sS'catch'
p371
I368
sS'spin'
p372
I369
sS'has'
p373
I370
sS'reshaped'
p374
I371
sS'pungent'
p375
I372
sS'air'
p376
I373
sS'aim'
p377
I374
sS'near'
p378
I375
sS'ain'
p379
I376
sS'dashboard'
p380
I377
sS'stopping'
p381
I378
sS'aid'
p382
I379
sS'aural'
p383
I380
sS'voice'
p384
I381
sS'buried'
p385
I382
sS'destory'
p386
I383
sS'is'
p387
I384
sS'spectacle'
p388
I385
sS'it'
p389
I386
sS'player'
p390
I387
sS'cant'
p391
I388
sS'im'
p392
I389
sS'exterior'
p393
I390
sS'in'
p394
I391
sS'faked'
p395
I392
sS'punctuality'
p396
I393
sS'controversy'
p397
I394
sS'ie'
p398
I395
sS'id'
p399
I396
sS'trusted'
p400
I397
sS'if'
p401
I398
sS'growl'
p402
I399
sS'bottles'
p403
I400
sS'shimmering'
p404
I401
sS'miniature'
p405
I1223
sS'things'
p406
I403
sS'make'
p407
I404
sS'beside'
p408
I406
sS'unfortunate'
p409
I407
sS'several'
p410
I408
sS'survival'
p411
I409
sS'fairly'
p412
I410
sS'hang'
p413
I411
sS'hand'
p414
I412
sS'tune'
p415
I414
sS'kid'
p416
I415
sS'shortly'
p417
I416
sS'suffering'
p418
I1605
sS'bonny'
p419
I418
sS'greatest'
p420
I419
sS'endif'
p421
I420
sS'the'
p422
I421
sS'left'
p423
I422
sS'just'
p424
I423
sS'sentence'
p425
I424
sS'photo'
p426
I425
sS'sporting'
p427
I426
sS'sleepy'
p428
I427
sS'gravity'
p429
I1962
sS'airbag'
p430
I429
sS'yes'
p431
I430
sS'scattering'
p432
I431
sS'yet'
p433
I432
sS'adding'
p434
I433
sS'ham'
p435
I434
sS'furry'
p436
I435
sS'ease'
p437
I436
sS'had'
p438
I437
sS'belongs'
p439
I438
sS'save'
p440
I439
sS'trimming'
p441
I440
sS'opt'
p442
I441
sS'boxed'
p443
I442
sS'breaks'
p444
I443
sS'possible'
p445
I444
sS'craaaaaaaaaaaaaap'
p446
I445
sS'angrily'
p447
I446
sS'possibly'
p448
I447
sS'fusion'
p449
I448
sS'performance'
p450
I854
sS'apart'
p451
I450
sS'shoulder'
p452
I451
sS'remind'
p453
I452
sS'pavement'
p454
I2263
sS'steps'
p455
I453
sS'night'
p456
I454
sS'overslept'
p457
I455
sS'right'
p458
I456
sS'old'
p459
I457
sS'crowd'
p460
I458
sS'people'
p461
I459
sS'sends'
p462
I460
sS'proudly'
p463
I461
sS'elderly'
p464
I462
sS'insistence'
p465
I463
sS'billboard'
p466
I464
sS'guess'
p467
I1389
sS'ignore'
p468
I1613
sS'for'
p469
I466
sS'bottom'
p470
I467
sS'normal'
p471
I468
sS'everything'
p472
I469
sS'icy'
p473
I470
sS'asking'
p474
I471
sS'adorable'
p475
I472
sS'christmas'
p476
I473
sS'peek'
p477
I474
sS'shakes'
p478
I475
sS'marketing'
p479
I476
sS'burn'
p480
I620
sS'speak'
p481
I2173
sS'discount'
p482
I478
sS'mutters'
p483
I479
sS'losing'
p484
I480
sS'insanity'
p485
I481
sS'shaken'
p486
I482
sS'proceed'
p487
I483
sS'conceal'
p488
I484
sS'dollars'
p489
I2258
sS'choke'
p490
I485
sS'misleading'
p491
I487
sS'azure'
p492
I488
sS'efforts'
p493
I489
sS'slightly'
p494
I490
sS'raised'
p495
I491
sS'lied'
p496
I492
sS'pays'
p497
I493
sS'down'
p498
I495
sS'lies'
p499
I496
sS'raises'
p500
I497
sS'nameless'
p501
I1786
sS'stumble'
p502
I498
sS'strangely'
p503
I499
sS'east'
p504
I500
sS'deal'
p505
I501
sS'constantly'
p506
I788
sS'fight'
p507
I503
sS'stuck'
p508
I504
sS'way'
p509
I505
sS'call'
p510
I506
sS'was'
p511
I507
sS'happy'
p512
I508
sS'questionable'
p513
I509
sS'head'
p514
I510
sS'amateur'
p515
I511
sS'form'
p516
I512
sS'attempted'
p517
I513
sS'becoming'
p518
I514
sS'garments'
p519
I516
sS'heat'
p520
I517
sS'hear'
p521
I518
sS'dead'
p522
I519
sS'shrills'
p523
I520
sS'congratulations'
p524
I521
sS'flavour'
p525
I522
sS'inside'
p526
I523
sS'bounds'
p527
I524
sS'tell'
p528
I525
sS'palm'
p529
I1623
sS'horses'
p530
I1247
sS'trio'
p531
I528
sS'phil'
p532
I529
sS'nicking'
p533
I530
sS'sticks'
p534
I531
sS'escape'
p535
I532
sS'sticky'
p536
I533
sS'thunk'
p537
I534
sS'sometime'
p538
I535
sS'qix'
p539
I536
sS'prayer'
p540
I537
sS'floating'
p541
I538
sS'check'
p542
I539
sS'marinated'
p543
I540
sS'crutches'
p544
I541
sS'holy'
p545
I542
sS'dotted'
p546
I543
sS'floor'
p547
I1013
sS'commercials'
p548
I545
sS'when'
p549
I546
sS'ne'
p550
I547
sS'topped'
p551
I548
sS'holding'
p552
I549
sS'papers'
p553
I550
sS'picture'
p554
I551
sS'dies'
p555
I552
sS'felt'
p556
I553
sS'nods'
p557
I554
sS'shatters'
p558
I555
sS'died'
p559
I556
sS'younger'
p560
I557
sS'bullet'
p561
I558
sS'glass'
p562
I559
sS'sacks'
p563
I560
sS'normally'
p564
I1979
sS'jacket'
p565
I562
sS'reception'
p566
I563
sS'time'
p567
I1145
sS'push'
p568
I565
sS'serious'
p569
I566
sS'songs'
p570
I567
sS'concept'
p571
I568
sS'chain'
p572
I569
sS'dance'
p573
I570
sS'leads'
p574
I571
sS'mild'
p575
I572
sS'chair'
p576
I573
sS'involved'
p577
I1780
sS'milk'
p578
I574
sS'row'
p579
I575
sS'certainly'
p580
I576
sS'essentials'
p581
I577
sS'father'
p582
I578
sS'charge'
p583
I579
sS'terror'
p584
I580
sS'must'
p585
I581
sS'lunch'
p586
I2116
sS'hannah'
p587
I582
sS'seemingly'
p588
I583
sS'emergencies'
p589
I584
sS'congregation'
p590
I585
sS'advised'
p591
I586
sS'trouble'
p592
I587
sS'minute'
p593
I588
sS'cool'
p594
I589
sS'impressive'
p595
I590
sS'level'
p596
I591
sS'did'
p597
I592
sS'die'
p598
I593
sS'gun'
p599
I594
sS'leave'
p600
I595
sS'p'
I596
sS'settle'
p601
I597
sS'grimace'
p602
I598
sS'quick'
p603
I599
sS'guy'
p604
I600
sS'round'
p605
I601
sS'unexpected'
p606
I602
sS'says'
p607
I603
sS'villa'
p608
I604
sS'sigh'
p609
I605
sS'sign'
p610
I606
sS'eating'
p611
I1633
sS'fear'
p612
I1987
sS'irritated'
p613
I609
sS'adds'
p614
I610
sS'appear'
p615
I611
sS'movies'
p616
I93
sS'assistance'
p617
I613
sS'hazel'
p618
I1967
sS'uniform'
p619
I614
sS'current'
p620
I615
sS'goes'
p621
I616
sS'shared'
p622
I617
sS'falling'
p623
I618
sS'scampering'
p624
I619
sS'pose'
p625
I477
sS'grandparents'
p626
I621
sS'involuntarily'
p627
I622
sS'water'
p628
I623
sS'address'
p629
I624
sS'mugs'
p630
I1990
sS'along'
p631
I626
sS'appears'
p632
I627
sS'change'
p633
I628
sS'wait'
p634
I629
sS'box'
p635
I630
sS'sending'
p636
I631
sS'merriment'
p637
I632
sS'thirty'
p638
I633
sS'impatiently'
p639
I634
sS'brilliant'
p640
I635
sS'wherever'
p641
I636
sS'commonly'
p642
I637
sS'bon'
p643
I638
sS'usually'
p644
I639
sS'noticeably'
p645
I640
sS'emerge'
p646
I641
sS'tasks'
p647
I642
sS'love'
p648
I643
sS'humour'
p649
I644
sS'bloody'
p650
I645
sS'verge'
p651
I646
sS'firearm'
p652
I647
sS'wealth'
p653
I649
sS'working'
p654
I650
sS'prove'
p655
I651
sS'give'
p656
I98
sS'visit'
p657
I653
sS'only'
p658
I654
sS'tightly'
p659
I655
sS'live'
p660
I656
sS'going'
p661
I657
sS'black'
p662
I658
sS'australian'
p663
I659
sS'swagger'
p664
I660
sS'today'
p665
I661
sS'hesitates'
p666
I662
sS'smudged'
p667
I663
sS'consoled'
p668
I664
sS'apparent'
p669
I665
sS'ooh'
p670
I666
sS'drown'
p671
I667
sS'snarkily'
p672
I668
sS'slogan'
p673
I669
sS'avoiding'
p674
I670
sS'soup'
p675
I671
sS'gathers'
p676
I672
sS'can'
p677
I673
sS'believed'
p678
I674
sS'making'
p679
I675
sS'arrive'
p680
I676
sS'pickle'
p681
I677
sS'heart'
p682
I678
sS'crazy'
p683
I679
sS'stream'
p684
I680
sS'pauses'
p685
I681
sS'fuck'
p686
I682
sS'sample'
p687
I683
sS'dropped'
p688
I684
sS'cornflakes'
p689
I685
sS'inheritance'
p690
I686
sS'watching'
p691
I2003
sS'poking'
p692
I688
sS'1'
I689
sS'emotionless'
p693
I690
sS'swore'
p694
I691
sS'optimal'
p695
I692
sS'speaks'
p696
I693
sS'explores'
p697
I694
sS'information'
p698
I1275
sS'may'
p699
I696
sS'dive'
p700
I697
sS'crashed'
p701
I698
sS'xxxxxxxxxx'
p702
I1314
sS'designed'
p703
I699
sS'date'
p704
I700
sS'such'
p705
I701
sS'man'
p706
I702
sS'surfing'
p707
I703
sS'branches'
p708
I704
sS'neck'
p709
I705
sS'maybe'
p710
I706
sS'switch'
p711
I707
sS'mango'
p712
I708
sS'truck'
p713
I709
sS'basket'
p714
I710
sS'tall'
p715
I711
sS'pulled'
p716
I712
sS'talk'
p717
I713
sS'drunken'
p718
I714
sS'neighbourhoods'
p719
I715
sS'displayed'
p720
I716
sS'years'
p721
I717
sS'ended'
p722
I718
sS'cold'
p723
I719
sS'still'
p724
I720
sS'blocked'
p725
I721
sS'group'
p726
I722
sS'thank'
p727
I723
sS'roborally'
p728
I724
sS'interesting'
p729
I725
sS'curls'
p730
I726
sS'inflicted'
p731
I727
sS'window'
p732
I728
sS'thump'
p733
I729
sS'showered'
p734
I730
sS'main'
p735
I731
sS'decades'
p736
I732
sS'happened'
p737
I733
sS'hop'
p738
I734
sS'nod'
p739
I735
sS'underneath'
p740
I736
sS'interview'
p741
I737
sS'adrenaline'
p742
I738
sS'half'
p743
I739
sS'not'
p744
I740
sS'now'
p745
I741
sS'killed'
p746
I742
sS'deady'
p747
I743
sS'name'
p748
I744
sS'drop'
p749
I745
sS'foundth'
p750
I746
sS'bursts'
p751
I747
sS'nodding'
p752
I748
sS'realise'
p753
I749
sS'rock'
p754
I750
sS'veins'
p755
I751
sS'entirely'
p756
I752
sS'em'
p757
I753
sS'fired'
p758
I754
sS'hiccups'
p759
I755
sS'yeah'
p760
I756
sS'fires'
p761
I757
sS'catching'
p762
I758
sS'year'
p763
I759
sS'hurries'
p764
I760
sS'happen'
p765
I761
sS'morning'
p766
I762
sS'er'
p767
I763
sS'space'
p768
I764
sS'hastily'
p769
I765
sS'looking'
p770
I5
sS'seriously'
p771
I767
sS'exploding'
p772
I768
sS'shows'
p773
I769
sS'earlier'
p774
I770
sS'state'
p775
I2030
sS'pumping'
p776
I771
sS'hulk'
p777
I772
sS'quite'
p778
I773
sS'spiel'
p779
I774
sS'besides'
p780
I775
sS'inevitable'
p781
I776
sS'card'
p782
I777
sS'care'
p783
I778
sS'collapsing'
p784
I779
sS'wrong'
p785
I780
sS'thing'
p786
I781
sS'apologising'
p787
I782
sS'place'
p788
I783
sS'aboard'
p789
I784
sS'think'
p790
I785
sS'first'
p791
I134
sS'cheese'
p792
I787
sS'flying'
p793
I502
sS'dwelling'
p794
I789
sS'ignored'
p795
I790
sS'rachel'
p796
I791
sS'yourself'
p797
I792
sS'long'
p798
I1660
sS'impossible'
p799
I794
sS'message'
p800
I176
sS'open'
p801
I796
sS'ont'
p802
I797
sS'size'
p803
I798
sS'city'
p804
I799
sS'little'
p805
I800
sS'sheet'
p806
I801
sS'humiliation'
p807
I2020
sS'caught'
p808
I803
sS'plastic'
p809
I804
sS'anyone'
p810
I805
sS'returns'
p811
I806
sS'twenties'
p812
I213
sS'tragic'
p813
I808
sS'terrifying'
p814
I809
sS'white'
p815
I810
sS'bits'
p816
I811
sS'friend'
p817
I812
sS'gives'
p818
I813
sS'eyes'
p819
I814
sS'hug'
p820
I815
sS'adjourned'
p821
I816
sS'mostly'
p822
I817
sS'that'
p823
I818
sS'huh'
p824
I820
sS'chute'
p825
I821
sS'crevice'
p826
I822
sS'than'
p827
I823
sS'11'
p828
I2281
sS'wide'
p829
I293
sS'13'
p830
I2279
sS'cracks'
p831
I825
sS'15'
p832
I2278
sS'unfortunately'
p833
I826
sS'17'
p834
I2277
sS'16'
p835
I2269
sS'19'
p836
I2276
sS'18'
p837
I2268
sS'opens'
p838
I1666
sS'were'
p839
I828
sS'cards'
p840
I829
sS'poisoning'
p841
I830
sS'disintergrates'
p842
I831
sS'fruity'
p843
I832
sS'and'
p844
I833
sS'hairline'
p845
I834
sS'turned'
p846
I835
sS'alley'
p847
I836
sS'dash'
p848
I837
sS'medical'
p849
I1684
sS'say'
p850
I838
sS'slam'
p851
I839
sS'comedian'
p852
I840
sS'greet'
p853
I841
sS'foiled'
p854
I842
sS'anger'
p855
I843
sS'saw'
p856
I844
sS'any'
p857
I845
sS'speakers'
p858
I846
sS'astonishingly'
p859
I847
sS'bailed'
p860
I848
sS'aside'
p861
I849
sS'wandered'
p862
I850
sS'equipment'
p863
I851
sS'potential'
p864
I852
sS'take'
p865
I853
sS'destroy'
p866
I449
sS'wonder'
p867
I855
sS'blunt'
p868
I856
sS'begin'
p869
I857
sS'sure'
p870
I858
sS'pain'
p871
I859
sS'opposite'
p872
I860
sS'impulsively'
p873
I861
sS'keeps'
p874
I862
sS'healthy'
p875
I1617
sS'paid'
p876
I863
sS'falls'
p877
I864
sS'boiling'
p878
I865
sS'printed'
p879
I866
sS'pair'
p880
I867
sS'forever'
p881
I868
sS'considered'
p882
I869
sS'later'
p883
I870
sS'drive'
p884
I871
sS'axe'
p885
I872
sS'walking'
p886
I873
sS'shot'
p887
I874
sS'show'
p888
I875
sS'fifty'
p889
I876
sS'discovered'
p890
I877
sS'jovi'
p891
I878
sS'bedside'
p892
I879
sS'corner'
p893
I880
sS'line'
p894
I1674
sS'ground'
p895
I883
sS'slow'
p896
I884
sS'busily'
p897
I885
sS'stained'
p898
I886
sS'storms'
p899
I887
sS'outside'
p900
I888
sS'tears'
p901
I890
sS'manoeuvre'
p902
I891
sS'believing'
p903
I892
sS'stain'
p904
I893
sS'trails'
p905
I1395
sS'plump'
p906
I894
sS'guarded'
p907
I895
sS'get'
p908
I896
sS'freezing'
p909
I897
sS'infallible'
p910
I898
sS'nearly'
p911
I899
sS'lighter'
p912
I900
sS'reveal'
p913
I901
sS'tastelessness'
p914
I1677
sS'leather'
p915
I903
sS'hinges'
p916
I904
sS'worried'
p917
I905
sS'naked'
p918
I906
sS'jokes'
p919
I907
sS'bison'
p920
I908
sS'bought'
p921
I2033
sS'where'
p922
I910
sS'vision'
p923
I911
sS'reveals'
p924
I912
sS'burst'
p925
I913
sS'signs'
p926
I1310
sS'seat'
p927
I915
sS'asleep'
p928
I916
sS'seal'
p929
I917
sS'concern'
p930
I918
sS'fails'
p931
I919
sS'detect'
p932
I920
sS'enlightening'
p933
I921
sS'ways'
p934
I922
sS'alarming'
p935
I923
sS'label'
p936
I881
sS'3'
I925
sS'between'
p937
I926
sS'chews'
p938
I927
sS'reading'
p939
I928
sS'across'
p940
I929
sS'notice'
p941
I930
sS'26'
p942
I2259
sS'killing'
p943
I932
sS'jovial'
p944
I933
sS'singers'
p945
I934
sS'20'
p946
I2267
sS'cities'
p947
I935
sS'come'
p948
I936
sS'deliciously'
p949
I937
sS'many'
p950
I938
sS'region'
p951
I939
sS'contract'
p952
I940
sS's'
I942
sS'patrons'
p953
I943
sS'mane'
p954
I944
sS'snarls'
p955
I945
sS'expression'
p956
I946
sS'comes'
p957
I947
sS'among'
p958
I948
sS'afterwards'
p959
I949
sS'cancer'
p960
I950
sS'passenger'
p961
I527
sS'pop'
p962
I951
sS'accusation'
p963
I952
sS'approval'
p964
I2039
sS'hunches'
p965
I953
sS'runaway'
p966
I955
sS'considering'
p967
I956
sS'destroyed'
p968
I957
sS'booms'
p969
I958
sS'toothpaste'
p970
I959
sS'breath'
p971
I960
sS'wants'
p972
I962
sS'direction'
p973
I963
sS'shopping'
p974
I964
sS'offered'
p975
I965
sS'gander'
p976
I966
sS'gripped'
p977
I967
sS'dramatic'
p978
I968
sS'suspected'
p979
I969
sS'careful'
p980
I970
sS'ruby'
p981
I971
sS'former'
p982
I972
sS'those'
p983
I973
sS'paying'
p984
I974
sS'predicament'
p985
I975
sS'these'
p986
I976
sS'might'
p987
I977
sS'pointless'
p988
I2197
sS'trick'
p989
I978
sS'ignition'
p990
I979
sS'scum'
p991
I980
sS'situation'
p992
I981
sS'mound'
p993
I982
sS'taking'
p994
I2046
sS'eventually'
p995
I985
sS'brow'
p996
I987
sS'taser'
p997
I988
sS'coffee'
p998
I155
sS'middle'
p999
I990
sS'good'
p1000
I991
sS'fame'
p1001
I992
sS'worry'
p1002
I993
sS'different'
p1003
I994
sS'pat'
p1004
I995
sS'doctor'
p1005
I996
sS'pay'
p1006
I997
sS'tour'
p1007
I998
sS'food'
p1008
I999
sS'html'
p1009
I1000
sS'struggling'
p1010
I1001
sS'events'
p1011
I1002
sS'finish'
p1012
I1003
sS'closest'
p1013
I1004
sS'munch'
p1014
I1005
sS'companion'
p1015
I1006
sS'cheers'
p1016
I1007
sS'persons'
p1017
I1008
sS'running'
p1018
I1009
sS'fruit'
p1019
I1010
sS'footprint'
p1020
I1011
sS'drain'
p1021
I1012
sS'no'
p1022
I544
sS'shore'
p1023
I1014
sS'without'
p1024
I1015
sS'relief'
p1025
I1016
sS'bottle'
p1026
I1017
sS'very'
p1027
I1018
sS'tinned'
p1028
I1335
sS'foyer'
p1029
I1020
sS'sinner'
p1030
I1021
sS'taxi'
p1031
I1022
sS'steamed'
p1032
I1023
sS'clogging'
p1033
I1024
sS'being'
p1034
I1025
sS'money'
p1035
I1026
sS'neon'
p1036
I1027
sS'actions'
p1037
I1028
sS'risking'
p1038
I1029
sS'violent'
p1039
I1030
sS'kill'
p1040
I1031
sS'touch'
p1041
I1032
sS'death'
p1042
I1033
sS'hint'
p1043
I1034
sS'seems'
p1044
I1035
sS'except'
p1045
I1036
sS'lets'
p1046
I1037
sS'4'
I2271
sS'real'
p1047
I1038
sS'around'
p1048
I1039
sS'presentable'
p1049
I1360
sS'desperately'
p1050
I1338
sS'read'
p1051
I1042
sS'gonna'
p1052
I1044
sS'gestures'
p1053
I1045
sS'traffic'
p1054
I1046
sS'styled'
p1055
I1047
sS'world'
p1056
I1048
sS'grin'
p1057
I1049
sS'swahsbuckler'
p1058
I1050
sS'stranger'
p1059
I1051
sS'nutrients'
p1060
I1052
sS't'
I1053
sS'grabbingly'
p1061
I1054
sS'uppercase'
p1062
I1055
sS'tragedies'
p1063
I1056
sS'ascend'
p1064
I1057
sS'table'
p1065
I2055
sS'diving'
p1066
I1059
sS'slice'
p1067
I1060
sS'drenched'
p1068
I1061
sS'stops'
p1069
I1062
sS'exit'
p1070
I1063
sS'tubs'
p1071
I1065
sS'turkey'
p1072
I1066
sS'business'
p1073
I1067
sS'airways'
p1074
I1068
sS'uneasy'
p1075
I1069
sS'pooch'
p1076
I1070
sS'throw'
p1077
I1071
sS'on'
p1078
I1072
sS'stone'
p1079
I1073
sS'oh'
p1080
I1074
sS'of'
p1081
I1075
sS'violence'
p1082
I1076
sS'side'
p1083
I1077
sS'informing'
p1084
I1078
sS'stand'
p1085
I1079
sS'west'
p1086
I1080
sS'assassin'
p1087
I1081
sS'or'
p1088
I1082
sS'road'
p1089
I1083
sS'protests'
p1090
I1084
sS'hypothermia'
p1091
I1085
sS'burning'
p1092
I1086
sS'curses'
p1093
I1087
sS'image'
p1094
I1088
sS'blessed'
p1095
I1089
sS'cursed'
p1096
I1090
sS'everyone'
p1097
I1343
sS'your'
p1098
I1092
sS'stare'
p1099
I1093
sS'accelerator'
p1100
I1345
sS'her'
p1101
I1095
sS'area'
p1102
I1096
sS'aren'
p1103
I1097
sS'distracted'
p1104
I1098
sS'hey'
p1105
I1099
sS'start'
p1106
I1100
sS'stealth'
p1107
I1101
sS'low'
p1108
I1102
sS'lot'
p1109
I1103
sS'jaws'
p1110
I1104
sS'politeness'
p1111
I1105
sS'heh'
p1112
I1106
sS'fish'
p1113
I1347
sS'complete'
p1114
I1108
sS'enough'
p1115
I1109
sS'strikes'
p1116
I1110
sS'fighter'
p1117
I1716
sS'shrugs'
p1118
I1113
sS'trying'
p1119
I1114
sS'with'
p1120
I1115
sS'spice'
p1121
I1116
sS'pull'
p1122
I1117
sS'rush'
p1123
I1118
sS'arranged'
p1124
I1119
sS'comics'
p1125
I1120
sS'strawberry'
p1126
I1121
sS'dirty'
p1127
I1122
sS'grasp'
p1128
I1123
sS'politically'
p1129
I1124
sS'agree'
p1130
I1125
sS'illnesses'
p1131
I1126
sS'ad'
p1132
I1127
sS'certain'
p1133
I1128
sS'describe'
p1134
I1129
sS'am'
p1135
I1130
sS'deep'
p1136
I1131
sS'an'
p1137
I1132
sS'examine'
p1138
I1133
sS'at'
p1139
I1134
sS'walks'
p1140
I1135
sS'tedious'
p1141
I1137
sS'again'
p1142
I1138
sS'tight'
p1143
I1139
sS'5'
I1140
sS'you'
p1144
I1141
sS'puppy'
p1145
I1142
sS'coughing'
p1146
I1143
sS'10'
p1147
I2280
sS'poop'
p1148
I1144
sS'translated'
p1149
I1616
sS'teeth'
p1150
I564
sS'peas'
p1151
I1146
sS'important'
p1152
I1147
sS'bullets'
p1153
I1148
sS'peak'
p1154
I1149
sS'recognise'
p1155
I1150
sS'tackle'
p1156
I1152
sS'pool'
p1157
I1153
sS'building'
p1158
I1154
sS'sardine'
p1159
I1155
sS'applause'
p1160
I1156
sS'wife'
p1161
I1157
sS'hello'
p1162
I1724
sS'moonlight'
p1163
I1159
sS'rimmed'
p1164
I1160
sS'alright'
p1165
I1161
sS'peeks'
p1166
I1162
sS'waiver'
p1167
I1163
sS'all'
p1168
I1164
sS'surrounded'
p1169
I1359
sS'quizzical'
p1170
I4
sS'pointing'
p1171
I1167
sS'lack'
p1172
I1168
sS'dollar'
p1173
I1169
sS'month'
p1174
I1170
sS'messy'
p1175
I1171
sS'follow'
p1176
I1172
sS'startled'
p1177
I2202
sS'laughing'
p1178
I1631
sS'to'
p1179
I1173
sS'smile'
p1180
I1174
sS'hideous'
p1181
I1175
sS'traditionally'
p1182
I1576
sS'case'
p1183
I1176
sS'woman'
p1184
I1177
sS'sitting'
p1185
I108
sS'far'
p1186
I1179
sS'horror'
p1187
I1180
sS'fan'
p1188
I1181
sS'decide'
p1189
I1182
sS'fall'
p1190
I1183
sS'floater'
p1191
I141
sS'ticket'
p1192
I1185
sS'condition'
p1193
I1186
sS'themes'
p1194
I1187
sS'sentimental'
p1195
I1188
sS'large'
p1196
I1189
sS'dinosaur'
p1197
I1190
sS'sand'
p1198
I1191
sS'exploitive'
p1199
I1192
sS'small'
p1200
I1193
sS'throbbing'
p1201
I1194
sS'relenting'
p1202
I1195
sS'gaggle'
p1203
I1663
sS'tea'
p1204
I1196
sS'streets'
p1205
I1197
sS'grabs'
p1206
I1198
sS'past'
p1207
I1199
sS'value'
p1208
I2080
sS'further'
p1209
I1201
sS'functioning'
p1210
I1202
sS'excit'
p1211
I1203
sS'90s'
p1212
I1204
sS'what'
p1213
I1205
sS'darkness'
p1214
I1206
sS'clock'
p1215
I1207
sS'brief'
p1216
I1208
sS'plush'
p1217
I307
sS'revealing'
p1218
I1210
sS'hasn'
p1219
I314
sS'full'
p1220
I1212
sS'loose'
p1221
I1213
sS'answers'
p1222
I1214
sS'tracks'
p1223
I1215
sS'egging'
p1224
I1216
sS'directions'
p1225
I1217
sS'strong'
p1226
I1218
sS'search'
p1227
I1219
sS'ahead'
p1228
I1220
sS'stretching'
p1229
I1221
sS'experience'
p1230
I1222
sS'drawers'
p1231
I402
sS'amount'
p1232
I1224
sS'advertising'
p1233
I1225
sS'pick'
p1234
I1226
sS'action'
p1235
I1227
sS'rummaging'
p1236
I1228
sS'followed'
p1237
I1230
sS'members'
p1238
I1370
sS'buses'
p1239
I1232
sS'suddenly'
p1240
I1233
sS'imagine'
p1241
I1371
sS'put'
p1242
I1372
sS'href'
p1243
I1237
sS'pulls'
p1244
I1238
sS'eye'
p1245
I1239
sS'takes'
p1246
I1240
sS'plastered'
p1247
I1241
sS'two'
p1248
I494
sS'6'
I1243
sS'taken'
p1249
I1244
sS'standee'
p1250
I1245
sS'more'
p1251
I1246
sS'teen'
p1252
I140
sS'flat'
p1253
I1248
sS'door'
p1254
I1249
sS'company'
p1255
I1250
sS'surprisingly'
p1256
I2090
sS'excuse'
p1257
I1252
sS'stick'
p1258
I1253
sS'particular'
p1259
I1254
sS'known'
p1260
I1255
sS'karaoke'
p1261
I1256
sS'keeping'
p1262
I1257
sS'hour'
p1263
I1258
sS'sweeps'
p1264
I1259
sS'frustratingly'
p1265
I1260
sS'mall'
p1266
I1261
sS'escorted'
p1267
I1262
sS'halts'
p1268
I1263
sS'dazed'
p1269
I1264
sS'knocked'
p1270
I1265
sS'male'
p1271
I1266
sS'history'
p1272
I1267
sS'purchases'
p1273
I1268
sS'pony'
p1274
I1269
sS'prompting'
p1275
I1270
sS'lives'
p1276
I1547
sS'states'
p1277
I1271
sS'sense'
p1278
I1272
sS'dress'
p1279
I1273
sS'narrowly'
p1280
I1274
sS'huge'
p1281
I695
sS'needs'
p1282
I1276
sS'awkward'
p1283
I1277
sS'rather'
p1284
I1278
sS'freshly'
p1285
I1279
sS'speeding'
p1286
I1280
sS'explains'
p1287
I1281
sS'wigs'
p1288
I1282
sS'creature'
p1289
I1283
sS'deafeningly'
p1290
I1284
sS'sandwich'
p1291
I1285
sS'okay'
p1292
I1286
sS'rude'
p1293
I1287
sS'reflect'
p1294
I1288
sS'plane'
p1295
I1289
sS'lighting'
p1296
I1290
sS'spectacularly'
p1297
I1291
sS'coming'
p1298
I1292
sS'response'
p1299
I1293
sS'a'
I1294
sS'refuse'
p1300
I1295
sS'short'
p1301
I1296
sS'susan'
p1302
I1297
sS'loud'
p1303
I1298
sS'stash'
p1304
I1299
sS'daggers'
p1305
I1300
sS'assailant'
p1306
I1301
sS'egg'
p1307
I1302
sS'playing'
p1308
I1303
sS'help'
p1309
I1304
sS'stains'
p1310
I1305
sS'soon'
p1311
I1306
sS'held'
p1312
I1307
sS'paper'
p1313
I1308
sS'through'
p1314
I1309
sS'replies'
p1315
I914
sS'hell'
p1316
I1311
sS'smiling'
p1317
I1312
sS'its'
p1318
I924
sS'arrogant'
p1319
I1315
sS'unhealthy'
p1320
I1380
sS'24'
p1321
I2275
sS'25'
p1322
I2260
sS'laced'
p1323
I1317
sS'arteries'
p1324
I1318
sS'rapidly'
p1325
I1319
sS'21'
p1326
I2272
sS'22'
p1327
I2261
sS'23'
p1328
I2282
sS'reluctance'
p1329
I1320
sS'actually'
p1330
I1321
sS'late'
p1331
I1322
sS'feel'
p1332
I1381
sS'ruining'
p1333
I1324
sS'peanuts'
p1334
I1325
sS'travelling'
p1335
I1326
sS'cutie'
p1336
I1327
sS'sauce'
p1337
I1328
sS'wouldn'
p1338
I1329
sS'someone'
p1339
I1330
sS'return'
p1340
I1331
sS'ya'
p1341
I1332
sS'peeing'
p1342
I1333
sS'walls'
p1343
I1334
sS'vomit'
p1344
I1019
sS'foot'
p1345
I1336
sS'hearing'
p1346
I1337
sS'easily'
p1347
I1041
sS'coping'
p1348
I1339
sS'always'
p1349
I1340
sS'debacle'
p1350
I2270
sS'turns'
p1351
I1341
sS'found'
p1352
I1342
sS'brunette'
p1353
I1091
sS'another'
p1354
I1344
sS'weight'
p1355
I1094
sS'house'
p1356
I1346
sS'energy'
p1357
I1107
sS'hard'
p1358
I1348
sS'idea'
p1359
I1349
sS'accidentally'
p1360
I1350
sS'oil'
p1361
I1351
sS'expect'
p1362
I1352
sS'inflated'
p1363
I1353
sS'todo'
p1364
I1354
sS'comic'
p1365
I1355
sS'really'
p1366
I1356
sS'flower'
p1367
I1357
sS'alcohol'
p1368
I1358
sS'since'
p1369
I1165
sS'7'
I1361
sS'occurs'
p1370
I1362
sS'ass'
p1371
I1363
sS'nervously'
p1372
I1364
sS'pathetic'
p1373
I1365
sS'alleviating'
p1374
I1366
sS'horse'
p1375
I1367
sS'reason'
p1376
I1368
sS'unsightly'
p1377
I1369
sS'dire'
p1378
I1231
sS'airway'
p1379
I1234
sS'ask'
p1380
I1236
sS'heroic'
p1381
I1373
sS'albatross'
p1382
I1374
sS'launch'
p1383
I1375
sS'fowls'
p1384
I1376
sS'american'
p1385
I1377
sS'leading'
p1386
I1391
sS'fallen'
p1387
I1379
sS'dont'
p1388
I1316
sS'dino'
p1389
I1323
sS'jabbed'
p1390
I1382
sS'knocking'
p1391
I1383
sS'number'
p1392
I1384
sS'feet'
p1393
I1385
sS'humourous'
p1394
I1386
sS'done'
p1395
I1387
sS'miss'
p1396
I1388
sS'story'
p1397
I102
sS'aven'
p1398
I1390
sS'twenty'
p1399
I1378
sS'threatening'
p1400
I1392
sS'least'
p1401
I1393
sS'storm'
p1402
I1394
sS'dealing'
p1403
I1043
sS'store'
p1404
I1396
sS'gleefully'
p1405
I1397
sS'behind'
p1406
I1398
sS'relieved'
p1407
I1399
sS'immediate'
p1408
I1400
sS'draped'
p1409
I1401
sS'appreciation'
p1410
I1402
sS'luckily'
p1411
I1403
sS'part'
p1412
I1404
sS'boredom'
p1413
I1405
sS'believe'
p1414
I1406
sS'stairs'
p1415
I1407
sS'reflection'
p1416
I2115
sS'serene'
p1417
I1620
sS'albeit'
p1418
I1409
sS'kind'
p1419
I1410
sS'b'
I1411
sS'double'
p1420
I1412
sS'supposed'
p1421
I1414
sS'colour'
p1422
I2118
sS'cleaner'
p1423
I1416
sS'swerve'
p1424
I1417
sS'basically'
p1425
I1418
sS'wasnt'
p1426
I1419
sS'fights'
p1427
I1420
sS'graffiti'
p1428
I1421
sS'aged'
p1429
I1422
sS'fading'
p1430
I1423
sS'lie'
p1431
I1424
sS'built'
p1432
I1425
sS'dancing'
p1433
I1426
sS'self'
p1434
I1427
sS'trapped'
p1435
I1428
sS'commotion'
p1436
I1429
sS'cropped'
p1437
I1430
sS'also'
p1438
I1431
sS'lifts'
p1439
I1432
sS'build'
p1440
I1433
sS'finding'
p1441
I1434
sS'tool'
p1442
I1435
sS'play'
p1443
I1436
sS'towards'
p1444
I1437
sS'reach'
p1445
I1438
sS'react'
p1446
I1439
sS'yawn'
p1447
I1440
sS'eaten'
p1448
I1441
sS'nothing'
p1449
I1442
sS'stands'
p1450
I1444
sS'windows'
p1451
I1445
sS'clear'
p1452
I1446
sS'sometimes'
p1453
I1447
sS'cover'
p1454
I1448
sS'traditional'
p1455
I1449
sS'bullseye'
p1456
I1450
sS'clean'
p1457
I1451
sS'latest'
p1458
I2124
sS'lying'
p1459
I1453
sS'giggles'
p1460
I1454
sS'mimes'
p1461
I1455
sS'carefully'
p1462
I1456
sS'melody'
p1463
I1457
sS'fine'
p1464
I1458
sS'find'
p1465
I1459
sS'impact'
p1466
I1460
sS'wraps'
p1467
I1461
sS'scooter'
p1468
I1462
sS'firewood'
p1469
I1463
sS'nonchalance'
p1470
I1464
sS'idiots'
p1471
I1465
sS'pretty'
p1472
I1466
sS'8'
I1467
sS'his'
p1473
I1468
sS'hit'
p1474
I1469
sS'hiv'
p1475
I1470
sS'permission'
p1476
I1471
sS'crappity'
p1477
I1472
sS'strut'
p1478
I1473
sS'famous'
p1479
I1474
sS'feels'
p1480
I1475
sS'valuable'
p1481
I1476
sS'reply'
p1482
I1477
sS'during'
p1483
I1478
sS'him'
p1484
I1479
sS'catcher'
p1485
I1480
sS'showed'
p1486
I1481
sS'nibbles'
p1487
I1482
sS'cry'
p1488
I1483
sS'remove'
p1489
I1484
sS'brush'
p1490
I2194
sS'common'
p1491
I1485
sS'cease'
p1492
I1486
sS'poisoned'
p1493
I1487
sS'snowstorm'
p1494
I1488
sS'approaching'
p1495
I1489
sS'insane'
p1496
I1490
sS'set'
p1497
I1491
sS'signify'
p1498
I1492
sS'disapproving'
p1499
I1493
sS'throwing'
p1500
I1494
sS'culture'
p1501
I1495
sS'see'
p1502
I1496
sS'bare'
p1503
I1497
sS'are'
p1504
I648
sS'close'
p1505
I1499
sS'arm'
p1506
I1500
sS'spirits'
p1507
I1501
sS'pictures'
p1508
I1502
sS'currently'
p1509
I1503
sS'woo'
p1510
I1504
sS'won'
p1511
I1505
sS'various'
p1512
I1506
sS'probably'
p1513
I1507
sS'knowing'
p1514
I1508
sS'responses'
p1515
I1509
sS'sold'
p1516
I1510
sS'attention'
p1517
I1511
sS'outfit'
p1518
I1512
sS'barrack'
p1519
I1513
sS'remaining'
p1520
I1599
sS'both'
p1521
I1514
sS'last'
p1522
I1515
sS'restaurant'
p1523
I1516
sS'barely'
p1524
I1517
sS'became'
p1525
I1518
sS'buzz'
p1526
I1519
sS'let'
p1527
I1773
sS'load'
p1528
I1521
sS'consume'
p1529
I1522
sS'point'
p1530
I1229
sS'simple'
p1531
I1524
sS'sweet'
p1532
I1525
sS'smashing'
p1533
I1526
sS'smother'
p1534
I1527
sS'whatever'
p1535
I1528
sS'coincidence'
p1536
I1529
sS'mumble'
p1537
I1530
sS'patiently'
p1538
I1531
sS'pr'
p1539
I1532
sS'devil'
p1540
I1533
sS'dogsitting'
p1541
I1534
sS'due'
p1542
I1535
sS'damn'
p1543
I1536
sS'brick'
p1544
I1537
sS'meeting'
p1545
I1538
sS'empty'
p1546
I1539
sS'slips'
p1547
I1540
sS'vans'
p1548
I1541
sS'lived'
p1549
I1542
sS'partly'
p1550
I1543
sS'else'
p1551
I1544
sS'fund'
p1552
I1546
sS'understand'
p1553
I984
sS'funk'
p1554
I1548
sS'utmost'
p1555
I1549
sS'look'
p1556
I1550
sS'straight'
p1557
I1551
sS'pace'
p1558
I1552
sS'while'
p1559
I1553
sS'replaced'
p1560
I1554
sS'leaning'
p1561
I1555
sS'fun'
p1562
I1556
sS'loop'
p1563
I1557
sS'erupting'
p1564
I1558
sS'leans'
p1565
I1559
sS'reads'
p1566
I1560
sS'nightstand'
p1567
I1561
sS'ready'
p1568
I1562
sS'rid'
p1569
I1563
sS'chase'
p1570
I1564
sS'gone'
p1571
I2050
sS'kills'
p1572
I1040
sS'choking'
p1573
I1566
sS'belong'
p1574
I1567
sS'grand'
p1575
I1568
sS'9'
I1569
sS'higher'
p1576
I1570
sS'arrives'
p1577
I174
sS'painless'
p1578
I1572
sS'yesterday'
p1579
I1573
sS'flows'
p1580
I1574
sS'moment'
p1581
I1545
sS'levels'
p1582
I193
sS'stack'
p1583
I211
sS'dark'
p1584
I413
sS'lower'
p1585
I1579
sS'spent'
p1586
I1580
sS'wedged'
p1587
I1581
sS'picks'
p1588
I1064
sS'person'
p1589
I1583
sS'cheer'
p1590
I1584
sS'edge'
p1591
I1585
sS'spend'
p1592
I1586
sS'ceo'
p1593
I1587
sS'shivering'
p1594
I1588
sS'aroma'
p1595
I1589
sS'distracting'
p1596
I1590
sS'rumbling'
p1597
I1591
sS'questions'
p1598
I1592
sS'using'
p1599
I1593
sS'assassins'
p1600
I2210
sS'loading'
p1601
I1594
sS'workers'
p1602
I1595
sS'alternate'
p1603
I1596
sS'source'
p1604
I1597
sS'location'
p1605
I1598
sS'excited'
p1606
I26
sS'bin'
p1607
I1600
sS'customers'
p1608
I1601
sS'march'
p1609
I1602
sS'big'
p1610
I1603
sS'couple'
p1611
I1604
sS'game'
p1612
I417
sS'quest'
p1613
I1606
sS'standees'
p1614
I1607
sS'bit'
p1615
I1608
sS'flannel'
p1616
I1609
sS'knock'
p1617
I1610
sS'success'
p1618
I2153
sS'glove'
p1619
I1612
sS'shapes'
p1620
I465
sS'continue'
p1621
I1614
sS'surging'
p1622
I1615
sS'travle'
p1623
I931
sS'essential'
p1624
I486
sS'often'
p1625
I1618
sS'flurry'
p1626
I1575
sS'some'
p1627
I1619
sS'back'
p1628
I515
sS'sighs'
p1629
I1621
sS'lips'
p1630
I1622
sS'mighty'
p1631
I526
sS'sight'
p1632
I1624
sS'mirror'
p1633
I1625
sS'clinking'
p1634
I1626
sS'sprint'
p1635
I1627
sS'describing'
p1636
I1628
sS'pee'
p1637
I1629
sS'pea'
p1638
I1630
sS'either'
p1639
I889
sS'be'
p1640
I1632
sS'run'
p1641
I607
sS'ufo'
p1642
I1634
sS'rub'
p1643
I1635
sS'step'
p1644
I1636
sS'nowhere'
p1645
I1637
sS'br'
p1646
I1638
sS'crap'
p1647
I1797
sS'smothered'
p1648
I1640
sS'by'
p1649
I1641
sS'goods'
p1650
I1642
sS'anything'
p1651
I1643
sS'most'
p1652
I1644
sS'lifeless'
p1653
I1645
sS'slams'
p1654
I1646
sS'hatred'
p1655
I1647
sS'silence'
p1656
I1648
sS'into'
p1657
I1649
sS'within'
p1658
I1650
sS'tofu'
p1659
I1651
sS'framed'
p1660
I1652
sS'services'
p1661
I1653
sS'rolls'
p1662
I1655
sS'realisation'
p1663
I1656
sS'infuriating'
p1664
I1657
sS'tasting'
p1665
I1658
sS'placing'
p1666
I1659
sS'fast'
p1667
I793
sS'occupy'
p1668
I1661
sS'infected'
p1669
I1662
sS'suit'
p1670
I819
sS'forward'
p1671
I1664
sS'bored'
p1672
I1665
sS'spat'
p1673
I827
sS'record'
p1674
I2221
sS'rummage'
p1675
I1667
sS'elsewhere'
p1676
I1668
sS'poster'
p1677
I1669
sS'atop'
p1678
I1670
sS'cloth'
p1679
I1671
sS'tragically'
p1680
I1672
sS'forbidding'
p1681
I1673
sS'crane'
p1682
I882
sS'raising'
p1683
I1675
sS'fades'
p1684
I1676
sS'skull'
p1685
I902
sS'fries'
p1686
I1678
sS'up'
p1687
I1679
sS'us'
p1688
I1680
sS'international'
p1689
I1722
sS'uh'
p1690
I1681
sS'planes'
p1691
I1682
sS'fried'
p1692
I1683
sS'called'
p1693
I941
sS'associated'
p1694
I1685
sS'beckoning'
p1695
I1686
sS'entrance'
p1696
I1687
sS'doesn'
p1697
I1688
sS'warning'
p1698
I1689
sS'obtuse'
p1699
I1691
sS'wuff'
p1700
I1692
sS'paradox'
p1701
I1693
sS'nah'
p1702
I1694
sS'vendor'
p1703
I1695
sS'excuses'
p1704
I1696
sS'reputation'
p1705
I1697
sS'tufo'
p1706
I2266
sS'nice'
p1707
I1699
sS'brushing'
p1708
I1700
sS'smiles'
p1709
I1701
sS'scrub'
p1710
I1702
sS'energetic'
p1711
I1703
sS'accidental'
p1712
I1704
sS'lend'
p1713
I1705
sS'favourite'
p1714
I1706
sS'prepared'
p1715
I1707
sS'helping'
p1716
I1708
sS'meaning'
p1717
I1709
sS'squirm'
p1718
I1710
sS'allowing'
p1719
I1711
sS'smiled'
p1720
I1712
sS'depicting'
p1721
I1713
sS'charming'
p1722
I1812
sS'ago'
p1723
I1715
sS'land'
p1724
I2262
sS'happier'
p1725
I1112
sS'overlooking'
p1726
I1717
sS'age'
p1727
I1718
sS'sudden'
p1728
I1719
sS'implied'
p1729
I1720
sS'came'
p1730
I1721
sS'fresh'
p1731
I1151
sS'menace'
p1732
I1723
sS'having'
p1733
I1158
sS'rinse'
p1734
I1725
sS'once'
p1735
I1726
sS'wrestle'
p1736
I1727
sS'results'
p1737
I1729
sS'tested'
p1738
I1730
sS'go'
p1739
I1731
sS'conversation'
p1740
I1915
sS'seemed'
p1741
I1732
sS'concerned'
p1742
I1733
sS'peering'
p1743
I1734
sS'young'
p1744
I1735
sS'send'
p1745
I1736
sS'culinary'
p1746
I1737
sS'fatal'
p1747
I1738
sS'sent'
p1748
I1739
sS'breathing'
p1749
I1740
sS'continues'
p1750
I1741
sS'wave'
p1751
I1742
sS'accuse'
p1752
I1743
sS'bounding'
p1753
I1744
sS'drinking'
p1754
I1745
sS'arrange'
p1755
I1746
sS'entire'
p1756
I1747
sS'exits'
p1757
I1748
sS'positions'
p1758
I1749
sS'shock'
p1759
I1750
sS'ryan'
p1760
I1751
sS'try'
p1761
I1752
sS'race'
p1762
I1753
sS'car'
p1763
I1754
sS'unsatisfied'
p1764
I1755
sS'sensation'
p1765
I1757
sS'mishap'
p1766
I1758
sS'jump'
p1767
I1759
sS'perched'
p1768
I1760
sS'odd'
p1769
I1761
sS'power'
p1770
I1762
sS'giving'
p1771
I1763
sS'waiting'
p1772
I1765
sS'body'
p1773
I1766
sS'led'
p1774
I1767
sS'got'
p1775
I1768
sS'gathered'
p1776
I1769
sS'sins'
p1777
I1770
sS'baring'
p1778
I1771
sS'growing'
p1779
I1772
sS'focused'
p1780
I1520
sS'sink'
p1781
I1774
sS'others'
p1782
I1775
sS'sing'
p1783
I1776
sS'fifteen'
p1784
I1777
sS'great'
p1785
I1778
sS'didn'
p1786
I2160
sS'receive'
p1787
I1779
sS'laughter'
p1788
I1443
sS'larger'
p1789
I1781
sS'leaving'
p1790
I1782
sS'suggests'
p1791
I1783
sS'resulting'
p1792
I1784
sS'opinion'
p1793
I1785
sS'climb'
p1794
I2
sS'makes'
p1795
I1787
sS'wig'
p1796
I1788
sS'named'
p1797
I1789
sS'nearest'
p1798
I1790
sS'win'
p1799
I1791
sS'manage'
p1800
I1792
sS'duck'
p1801
I1793
sS'singing'
p1802
I1794
sS'standing'
p1803
I1795
sS'use'
p1804
I1796
sS'from'
p1805
I1639
sS'figure'
p1806
I1798
sS'remains'
p1807
I1799
sS'next'
p1808
I1800
sS'few'
p1809
I1801
sS'cram'
p1810
I1802
sS'hiding'
p1811
I1925
sS'disgustingly'
p1812
I1804
sS'sort'
p1813
I1805
sS'clever'
p1814
I1806
sS'upcoming'
p1815
I1807
sS'started'
p1816
I1808
sS'becomes'
p1817
I1698
sS'impress'
p1818
I1810
sS'infection'
p1819
I1811
sS'bodily'
p1820
I1714
sS'carrying'
p1821
I1813
sS'ashamed'
p1822
I1728
sS'baby'
p1823
I1815
sS'appointed'
p1824
I1816
sS'women'
p1825
I1817
sS'high'
p1826
I1836
sS'talks'
p1827
I1814
sS'this'
p1828
I1819
sS'clients'
p1829
I1820
sS'insists'
p1830
I1821
sS'pour'
p1831
I1822
sS'recession'
p1832
I1823
sS'anywhere'
p1833
I1824
sS'obvious'
p1834
I1825
sS'thin'
p1835
I1826
sS'meet'
p1836
I1827
sS'closing'
p1837
I1828
sS'drops'
p1838
I1829
sS'performed'
p1839
I1830
sS'control'
p1840
I1831
sS'process'
p1841
I1832
sS'billboards'
p1842
I1833
sS'dripping'
p1843
I1834
sS'pieces'
p1844
I1835
sS'atone'
p1845
I1818
sS'tag'
p1846
I1837
sS'exclaims'
p1847
I1838
sS'something'
p1848
I1839
sS'slip'
p1849
I1840
sS'lamb'
p1850
I1841
sS'sir'
p1851
I1842
sS'sip'
p1852
I1843
sS'sit'
p1853
I1844
sS'lamp'
p1854
I1845
sS'instead'
p1855
I1846
sS'establishment'
p1856
I1847
sS'buildings'
p1857
I1848
sS'cupboard'
p1858
I1849
sS'watch'
p1859
I1850
sS'collection'
p1860
I1851
sS'hawk'
p1861
I1852
sS'tomato'
p1862
I1853
sS'light'
p1863
I1854
sS'gulps'
p1864
I1855
sS'interrupted'
p1865
I1856
sS'crazed'
p1866
I1857
sS'lined'
p1867
I1858
sS'wedding'
p1868
I1859
sS'whilst'
p1869
I1860
sS'looks'
p1870
I1861
sS'horns'
p1871
I1862
sS'lounge'
p1872
I1863
sS'll'
p1873
I1864
sS'relish'
p1874
I1865
sS'permanent'
p1875
I1866
sS'restrain'
p1876
I1867
sS'choose'
p1877
I1868
sS'stalled'
p1878
I1869
sS'covered'
p1879
I1870
sS'bumbling'
p1880
I1871
sS'treasure'
p1881
I1872
sS'practice'
p1882
I1873
sS'mention'
p1883
I1875
sS'socks'
p1884
I2191
sS'snoopy'
p1885
I1877
sS'hands'
p1886
I1878
sS'front'
p1887
I1879
sS'flee'
p1888
I1880
sS'day'
p1889
I1881
sS'motorcycles'
p1890
I1882
sS'grumbling'
p1891
I1883
sS'warned'
p1892
I1884
sS'skilsl'
p1893
I1885
sS'deciding'
p1894
I2174
sS'slipping'
p1895
I1886
sS'weather'
p1896
I2193
sS'rockets'
p1897
I1888
sS'shaking'
p1898
I1889
sS'glasses'
p1899
I1890
sS'doing'
p1900
I1891
sS'conquers'
p1901
I1892
sS'related'
p1902
I1893
sS'inverted'
p1903
I1894
sS'irritation'
p1904
I1895
sS'our'
p1905
I1896
sS'wander'
p1906
I1897
sS'out'
p1907
I1898
sS'rex'
p1908
I1899
sS'giant'
p1909
I1900
sS'entertainment'
p1910
I1901
sS'announces'
p1911
I1902
sS'smog'
p1912
I1903
sS'stun'
p1913
I20
sS'red'
p1914
I1905
sS'yawns'
p1915
I1906
sS'70s'
p1916
I1907
sS'approaches'
p1917
I57
sS'limted'
p1918
I1909
sS'early'
p1919
I1910
sS'chilli'
p1920
I1911
sS'backwards'
p1921
I1912
sS'could'
p1922
I1913
sS'times'
p1923
I1914
sS'stride'
p1924
I1313
sS'length'
p1925
I1916
sS'receding'
p1926
I1917
sS'vegetables'
p1927
I2198
sS'there'
p1928
I1919
sS'third'
p1929
I1920
sS'savour'
p1930
I1921
sS'yells'
p1931
I1922
sS'scene'
p1932
I1923
sS'reaches'
p1933
I1924
sS'sadly'
p1934
I1926
sS'dump'
p1935
I1927
sS'system'
p1936
I1928
sS'their'
p1937
I1929
sS'wrapped'
p1938
I1930
sS'perfectly'
p1939
I1931
sS'final'
p1940
I1932
sS'groggily'
p1941
I1933
sS'stomach'
p1942
I1934
sS'gear'
p1943
I1935
sS'exactly'
p1944
I1936
sS'depressing'
p1945
I1937
sS'herself'
p1946
I1938
sS'haven'
p1947
I1939
sS'remember'
p1948
I1940
sS'loved'
p1949
I1941
sS'photograph'
p1950
I297
sS'boring'
p1951
I310
sS'voompf'
p1952
I1944
sS'bed'
p1953
I1945
sS'loves'
p1954
I1946
sS'lover'
p1955
I1947
sS'distinguished'
p1956
I1948
sS'wueens'
p1957
I1498
sS'imaginative'
p1958
I1950
sS'lightly'
p1959
I1951
sS'deodorant'
p1960
I1952
sS'gently'
p1961
I366
sS'tonight'
p1962
I1954
sS'gentle'
p1963
I1955
sS'have'
p1964
I1956
sS'faux'
p1965
I1957
sS'clearly'
p1966
I1958
sS'she'
p1967
I2017
sS'screw'
p1968
I1959
sS'dishes'
p1969
I1960
sS'able'
p1970
I1961
sS'mid'
p1971
I428
sS'mechanism'
p1972
I1963
sS'which'
p1973
I1964
sS'so'
p1974
I1965
sS'trundles'
p1975
I7
sS'who'
p1976
I405
sS'noggin'
p1977
I1968
sS'demise'
p1978
I1969
sS'device'
p1979
I1970
sS'alarmed'
p1980
I1971
sS'why'
p1981
I1972
sS'clasp'
p1982
I1973
sS'stranded'
p1983
I1974
sS'face'
p1984
I1975
sS'looked'
p1985
I1976
sS'businessman'
p1986
I1978
sS'painting'
p1987
I561
sS'planks'
p1988
I1980
sS'fact'
p1989
I1981
sS'emerging'
p1990
I1982
sS'selection'
p1991
I1983
sS'text'
p1992
I1984
sS'bring'
p1993
I1985
sS'bedroom'
p1994
I1986
sS'rough'
p1995
I608
sS'trivial'
p1996
I1988
sS'pause'
p1997
I1989
sS'based'
p1998
I625
sS'knowledge'
p1999
I1991
sS'hops'
p2000
I1992
sS'should'
p2001
I1994
sS'surroundings'
p2002
I1995
sS'jam'
p2003
I1996
sS'emitting'
p2004
I1997
sS'handsome'
p2005
I1998
sS'jab'
p2006
I1999
sS'hope'
p2007
I2000
sS'photographs'
p2008
I2001
sS'move'
p2009
I2002
sS'means'
p2010
I687
sS'familiar'
p2011
I2004
sS'diagnosing'
p2012
I2005
sS'lucky'
p2013
I2006
sS'ones'
p2014
I2007
sS'words'
p2015
I2008
sS'diarroiah'
p2016
I2009
sS'areas'
p2017
I2010
sS'smash'
p2018
I2011
sS'glory'
p2019
I2217
sS'course'
p2020
I2013
sS'eyebrow'
p2021
I2014
sS'calling'
p2022
I2015
sS'stuff'
p2023
I2016
sS'overflowing'
p2024
I1136
sS'contain'
p2025
I2018
sS'grab'
p2026
I2019
sS'exists'
p2027
I802
sS'deathspotting'
p2028
I2021
sS'machineofdeath'
p2029
I2022
sS'snorts'
p2030
I2023
sS'creating'
p2031
I2024
sS'closes'
p2032
I2025
sS'closet'
p2033
I2026
sS'rags'
p2034
I2027
sS'musky'
p2035
I2028
sS'genius'
p2036
I2029
sS'written'
p2037
I348
sS'correctly'
p2038
I2031
sS'weird'
p2039
I1577
sS'rendition'
p2040
I2032
sS'pants'
p2041
I909
sS'explosive'
p2042
I2034
sS'ability'
p2043
I2035
sS'weak'
p2044
I2036
sS'job'
p2045
I2037
sS'merry'
p2046
I2038
sS'police'
p2047
I1111
sS'jon'
p2048
I2040
sS'staring'
p2049
I961
sS'hits'
p2050
I2042
sS'sniff'
p2051
I2043
sS'career'
p2052
I2044
sS'joke'
p2053
I2045
sS'invited'
p2054
I983
sS'admit'
p2055
I2047
sS'safely'
p2056
I2048
sS'co'
p2057
I2049
sS'toilet'
p2058
I281
sS'wall'
p2059
I2051
sS'cb'
p2060
I2052
sS'walk'
p2061
I2053
sS'laugh'
p2062
I2054
sS'gave'
p2063
I2164
sS'confronts'
p2064
I1058
sS'winning'
p2065
I2056
sS'quit'
p2066
I2057
sS'second'
p2067
I2058
sS'dazzling'
p2068
I2059
sS'responds'
p2069
I2060
sS'gaze'
p2070
I2061
sS'slowly'
p2071
I2062
sS'treat'
p2072
I2063
sS'smatter'
p2073
I2064
sS'ah'
p2074
I2065
sS'shoulders'
p2075
I2066
sS'finishes'
p2076
I2067
sS'received'
p2077
I2068
sS'deer'
p2078
I2069
sS'sufficient'
p2079
I2070
sS'crappy'
p2080
I2071
sS'hmm'
p2081
I2072
sS'ensuring'
p2082
I2073
sS'hobby'
p2083
I2074
sS'volunteer'
p2084
I2075
sS'laser'
p2085
I2076
sS'need'
p2086
I2077
sS'harder'
p2087
I2078
sS'as'
p2088
I2079
sS'irate'
p2089
I1200
sS'will'
p2090
I2081
sS'hahaha'
p2091
I2082
sS'wild'
p2092
I2083
sS'instantly'
p2093
I2084
sS'discoveries'
p2094
I2085
sS'groin'
p2095
I2086
sS'supply'
p2096
I2134
sS've'
p2097
I2087
sS'almost'
p2098
I2088
sS'blood'
p2099
I786
sS'thus'
p2100
I2089
sS'drips'
p2101
I1251
sS'rips'
p2102
I2091
sS'malls'
p2103
I2092
sS'swinging'
p2104
I2093
sS'ave'
p2105
I2094
sS'sits'
p2106
I2095
sS'conserve'
p2107
I2096
sS'halt'
p2108
I2097
sS'portray'
p2109
I2098
sS'capture'
p2110
I2099
sS'perhaps'
p2111
I2100
sS'flour'
p2112
I2101
sS'inch'
p2113
I2102
sS'party'
p2114
I2103
sS'gets'
p2115
I2104
sS'joyously'
p2116
I2105
sS'injured'
p2117
I2106
sS'incorrect'
p2118
I2107
sS'http'
p2119
I2108
sS'appearances'
p2120
I2109
sS'drink'
p2121
I2110
sS'effect'
p2122
I2111
sS'dust'
p2123
I2112
sS'keep'
p2124
I2113
sS'off'
p2125
I2114
sS'center'
p2126
I1408
sS'trudge'
p2127
I1413
sS'i'
I2117
sS'weapon'
p2128
I1415
sS'well'
p2129
I2119
sS'fighting'
p2130
I2120
sS'thought'
p2131
I2121
sS'english'
p2132
I2122
sS'position'
p2133
I2123
sS'usual'
p2134
I1452
sS'fixated'
p2135
I2125
sS'cameo'
p2136
I2126
sS'moments'
p2137
I2127
sS'claiming'
p2138
I2237
sS'accurate'
p2139
I2129
sS'fishing'
p2140
I2130
sS'rest'
p2141
I2131
sS'cigarette'
p2142
I2132
sS'wee'
p2143
I2133
sS'drunk'
p2144
I1523
sS'sky'
p2145
I2135
sS'handy'
p2146
I2136
sS'battery'
p2147
I2137
sS'add'
p2148
I2138
sS'combine'
p2149
I2139
sS'silently'
p2150
I2140
sS'indignation'
p2151
I2141
sS'kick'
p2152
I2142
sS'livin'
p2153
I2143
sS'fate'
p2154
I2144
sS'government'
p2155
I2145
sS'five'
p2156
I2146
sS'know'
p2157
I2147
sS'desk'
p2158
I2148
sS'press'
p2159
I2149
sS'immediately'
p2160
I2150
sS'insert'
p2161
I2151
sS'like'
p2162
I2152
sS'lost'
p2163
I1611
sS'sofa'
p2164
I2154
sS'sized'
p2165
I2155
sS'stagger'
p2166
I2156
sS'lose'
p2167
I2157
sS'become'
p2168
I2158
sS'works'
p2169
I2159
sS'because'
p2170
I1654
sS'alive'
p2171
I2161
sS'hair'
p2172
I2162
sS'proper'
p2173
I2163
sS'home'
p2174
I1690
sS'blade'
p2175
I2165
sS'neglecting'
p2176
I2166
sS'lead'
p2177
I2167
sS'avoid'
p2178
I2168
sS'kettle'
p2179
I2169
sS'delightful'
p2180
I2170
sS'leap'
p2181
I2171
sS'does'
p2182
I2172
sS'belt'
p2183
I1874
sS'regain'
p2184
I1756
sS'pomeranian'
p2185
I2175
sS'schedule'
p2186
I2176
sS'slum'
p2187
I2177
sS'stage'
p2188
I1803
sS'about'
p2189
I2179
sS'getting'
p2190
I2180
sS'universe'
p2191
I2181
sS'choppin'
p2192
I2182
sS'carries'
p2193
I2183
sS'sweat'
p2194
I2184
sS'tongue'
p2195
I2185
sS'own'
p2196
I2186
sS'letters'
p2197
I2187
sS'h2'
p2198
I2188
sS'h1'
p2199
I2189
sS'flailing'
p2200
I2190
sS'h4'
p2201
I1876
sS'assess'
p2202
I2192
sS'doesnt'
p2203
I1887
sS'been'
p2204
I356
sS'roads'
p2205
I2195
sS'couldnt'
p2206
I2196
sS'forget'
p2207
I1166
sS'descriptions'
p2208
I1949
sS'housing'
p2209
I1918
sS'disapproval'
p2210
I2199
sS'noticed'
p2211
I2200
sS'bump'
p2212
I2201
sS'much'
p2213
I1993
sS'notices'
p2214
I2203
sS'naturally'
p2215
I2204
sS'buy'
p2216
I2205
sS'north'
p2217
I2206
sS'bus'
p2218
I2207
sS'but'
p2219
I2208
sS'delivery'
p2220
I2209
sS'lowered'
p2221
I1977
sS'pantry'
p2222
I2211
sS'wince'
p2223
I2212
sS'squeeze'
p2224
I1764
sS'eat'
p2225
I2214
sS'he'
p2226
I2215
sS'made'
p2227
I2216
sS'places'
p2228
I2012
sS'dangerous'
p2229
I2218
sS'signed'
p2230
I2219
sS'excitement'
p2231
I2220
sS'placed'
p2232
I12
sS'below'
p2233
I2222
sS'stories'
p2234
I2223
sS'piece'
p2235
I2224
sS'minutes'
p2236
I2225
sS'display'
p2237
I2226
sS'deaths'
p2238
I2227
sS'pie'
p2239
I2228
sS'utensils'
p2240
I2229
sS'beats'
p2241
I2230
sS'goodness'
p2242
I2231
sS'shooting'
p2243
I2232
sS'proceeds'
p2244
I2233
sS'functions'
p2245
I2234
sS'nonetheless'
p2246
I2235
sS'dressed'
p2247
I2236
sS'boot'
p2248
I2128
sS'lately'
p2249
I2238
sS'other'
p2250
I2239
sS'wipes'
p2251
I2240
sS'ledge'
p2252
I2241
sS'welcomes'
p2253
I2242
sS'repute'
p2254
I2243
sS'incredibly'
p2255
I2244
sS'star'
p2256
I2245
sS'waves'
p2257
I2246
sS'tackiest'
p2258
I2247
sS'unoriginal'
p2259
I2248
sS'bundle'
p2260
I2249
sS'stay'
p2261
I2250
sS'chance'
p2262
I2251
sS'kinda'
p2263
I2252
sS'friends'
p2264
I2253
sS'inspiration'
p2265
I2254
sS'stirred'
p2266
I2255
sS'determination'
p2267
I986
sS'honchos'
p2268
I2257
s.