(dp1
S'all'
p2
I0
sS'wrestle'
p3
I1
sS'four'
p4
I2
sS'known'
p5
I204
sS'go'
p6
I4
sS'chair'
p7
I5
sS'suicide'
p8
I6
sS'to'
p9
I7
sS'under'
p10
I8
sS'dramatically'
p11
I9
sS'me'
p12
I66
sS'worse'
p13
I11
sS'barstool'
p14
I12
sS'x9d'
p15
I13
sS'decide'
p16
I14
sS'floater'
p17
I15
sS'minute'
p18
I16
sS'exits'
p19
I17
sS'did'
p20
I18
sS'gun'
p21
I19
sS'try'
p22
I20
sS'settle'
p23
I21
sS'quick'
p24
I22
sS'be'
p25
I346
sS'tea'
p26
I23
sS'yourself'
p27
I47
sS'zero'
p28
I24
sS'street'
p29
I25
sS'what'
p30
I26
sS'hide'
p31
I27
sS'pomeranian'
p32
I348
sS'cleanliness'
p33
I29
sS'remain'
p34
I72
sS'poison'
p35
I31
sS'new'
p36
I32
sS'shoo'
p37
I221
sS'let'
p38
I34
sS'others'
p39
I35
sS'sing'
p40
I36
sS'wait'
p41
I37
sS'search'
p42
I38
sS'ahead'
p43
I39
sS'experience'
p44
I40
sS'drawers'
p45
I41
sS'bon'
p46
I42
sS'wig'
p47
I43
sS'win'
p48
I44
sS'excuse'
p49
I410
sS'duck'
p50
I45
sS'apply'
p51
I46
sS'standing'
p52
I339
sS'use'
p53
I48
sS'from'
p54
I49
sS'would'
p55
I50
sS'two'
p56
I51
sS'next'
p57
I52
sS'jam'
p58
I225
sS'call'
p59
I54
sS'strike'
p60
I55
sS'survive'
p61
I56
sS'tell'
p62
I57
sS'more'
p63
I58
sS'knows'
p64
I59
sS'company'
p65
I60
sS'phone'
p66
I61
sS'baby'
p67
I62
sS'hold'
p68
I63
sS'blocking'
p69
I64
sS'must'
p70
I65
sS'shoot'
p71
I10
sS'none'
p72
I67
sS'room'
p73
I68
sS'this'
p74
I69
sS'car'
p75
I70
sS'work'
p76
I71
sS'mall'
p77
I30
sS'sour'
p78
I73
sS'can'
p79
I74
sS'meet'
p80
I75
sS'my'
p81
I76
sS'could'
p82
I154
sS'heart'
p83
I78
sS'crazy'
p84
I79
sS'tap'
p85
I80
sS'want'
p86
I85
sS'give'
p87
I82
sS'lordy'
p88
I83
sS'fuck'
p89
I84
sS'death'
p90
I251
sS'slip'
p91
I81
sS'dignity'
p92
I323
sS'david'
p93
I156
sS'sir'
p94
I87
sS'end'
p95
I88
sS'turn'
p96
I89
sS'rather'
p97
I90
sS'machine'
p98
I91
sS'how'
p99
I92
sS'interview'
p100
I93
sS'wigs'
p101
I94
sS'sandwich'
p102
I95
sS'cupboard'
p103
I96
sS'watch'
p104
I97
sS'dive'
p105
I98
sS'after'
p106
I99
sS'reflect'
p107
I100
sS'blood'
p108
I101
sS'a'
I102
sS'jovi'
p109
I103
sS'light'
p110
I183
sS'sit'
p111
I105
sS'truck'
p112
I106
sS'things'
p113
I107
sS'oysters'
p114
I108
sS'help'
p115
I109
sS'office'
p116
I110
sS'stains'
p117
I111
sS'over'
p118
I112
sS'move'
p119
I113
sS'satisfied'
p120
I114
sS'paper'
p121
I115
sS'through'
p122
I116
sS'hell'
p123
I117
sS'still'
p124
I118
sS'before'
p125
I119
sS'diarroiah'
p126
I120
sS'll'
p127
I121
sS'better'
p128
I122
sS'differently'
p129
I123
sS'good'
p130
I124
sS'return'
p131
I125
sS'food'
p132
I126
sS'hands'
p133
I127
sS'not'
p134
I128
sS'now'
p135
I129
sS'day'
p136
I130
sS'bills'
p137
I131
sS'side'
p138
I132
sS'mean'
p139
I133
sS'calmly'
p140
I134
sS'everyone'
p141
I135
sS'yeah'
p142
I136
sS'pantry'
p143
I137
sS'logo'
p144
I138
sS'happen'
p145
I139
sS'really'
p146
I140
sS'leave'
p147
I141
sS'driving'
p148
I142
sS'defend'
p149
I143
sS'your'
p150
I363
sS'looking'
p151
I145
sS're'
p152
I146
sS'nervously'
p153
I147
sS'ask'
p154
I149
sS'quits'
p155
I150
sS'card'
p156
I151
sS'care'
p157
I152
sS'couldn'
p158
I153
sS'route'
p159
I77
sS'running'
p160
I155
sS'keep'
p161
I86
sS'thing'
p162
I157
sS'funky'
p163
I158
sS'place'
p164
I159
sS'south'
p165
I160
sS'first'
p166
I161
sS'already'
p167
I162
sS'rachel'
p168
I163
sS'one'
p169
I164
sS'done'
p170
I165
sS'little'
p171
I166
sS'lister'
p172
I167
sS'x9cwhat'
p173
I168
sS'eyes'
p174
I169
sS'way'
p175
I369
sS'that'
p176
I171
sS'apologise'
p177
I172
sS'butt'
p178
I173
sS'stairs'
p179
I174
sS'than'
p180
I175
sS'photograph'
p181
I176
sS'b'
I177
sS'unfortunately'
p182
I178
sS'gotten'
p183
I179
sS'gotta'
p184
I180
sS'shower'
p185
I181
sS'iron'
p186
I182
sS'maybe'
p187
I104
sS'and'
p188
I184
sS'swerve'
p189
I185
sS'alley'
p190
I186
sS'tonight'
p191
I187
sS'say'
p192
I188
sS'slam'
p193
I189
sS'have'
p194
I190
sS'need'
p195
I191
sS'screw'
p196
I192
sS'nights'
p197
I193
sS'thorough'
p198
I194
sS'take'
p199
I195
sS'bus'
p200
I375
sS'towards'
p201
I197
sS'centre'
p202
I198
sS'who'
p203
I199
sS'mouth'
p204
I200
sS'nothing'
p205
I201
sS'coin'
p206
I202
sS'why'
p207
I203
sS'don'
p208
I205
sS'failure'
p209
I377
sS'mobile'
p210
I207
sS'alarm'
p211
I208
sS'm'
I209
sS'drive'
p212
I210
sS'axe'
p213
I211
sS'painting'
p214
I212
sS'photograghs'
p215
I213
sS'saying'
p216
I214
sS'shot'
p217
I215
sS'fifty'
p218
I216
sS'bedroom'
p219
I217
sS'carefully'
p220
I218
sS'fine'
p221
I219
sS'find'
p222
I220
sS'ground'
p223
I33
sS'brushin'
p224
I222
sS'explain'
p225
I223
sS'failed'
p226
I224
sS'going'
p227
I53
sS'employee'
p228
I226
sS'do'
p229
I227
sS'his'
p230
I228
sS'hit'
p231
I229
sS'get'
p232
I230
sS'stop'
p233
I231
sS'wordy'
p234
I232
sS'him'
p235
I233
sS'reveal'
p236
I234
sS'catcher'
p237
I235
sS'grab'
p238
I236
sS'poisoned'
p239
I237
sS'deathspotting'
p240
I238
sS'see'
p241
I239
sS'are'
p242
I240
sS'best'
p243
I241
sS'closet'
p244
I242
sS'away'
p245
I243
sS'outside'
p246
I244
sS'finger'
p247
I245
sS'disgruntled'
p248
I246
sS'explosive'
p249
I247
sS'ability'
p250
I248
sS'attention'
p251
I249
sS'outfit'
p252
I250
sS'penchant'
p253
I3
sS'kitchen'
p254
I252
sS'restaurant'
p255
I253
sS'tour'
p256
I285
sS'co'
p257
I255
sS'path'
p258
I256
sS'table'
p259
I257
sS'blonde'
p260
I258
sS'quit'
p261
I259
sS'west'
p262
I260
sS'three'
p263
I261
sS'been'
p264
I262
sS'gaze'
p265
I263
sS'erm'
p266
I264
sS'life'
p267
I265
sS'else'
p268
I266
sS'catch'
p269
I267
sS'has'
p270
I268
sS'look'
p271
I269
sS'straight'
p272
I270
sS'as'
p273
I391
sS'air'
p274
I272
sS'will'
p275
I273
sS'near'
p276
I274
sS'situation'
p277
I275
sS'cab'
p278
I276
sS'seven'
p279
I277
sS'is'
p280
I278
sS'it'
p281
I279
sS'in'
p282
I280
sS'rid'
p283
I281
sS'if'
p284
I282
sS'different'
p285
I283
sS'pay'
p286
I284
sS's'
I254
sS'x80'
p287
I286
sS'drink'
p288
I287
sS'driver'
p289
I288
sS'moment'
p290
I289
sS'moving'
p291
I290
sS'off'
p292
I291
sS'i'
I292
sS'no'
p293
I395
sS'the'
p294
I294
sS'sinner'
p295
I295
sS'just'
p296
I296
sS'being'
p297
I297
sS'rest'
p298
I299
sS'touch'
p299
I300
sS'yes'
p300
I301
sS'yet'
p301
I302
sS'cut'
p302
I303
sS'workers'
p303
I304
sS'had'
p304
I305
sS'killed'
p305
I306
sS'easy'
p306
I307
sS'hurry'
p307
I308
sS'east'
p308
I309
sS'starving'
p309
I310
sS'around'
p310
I311
sS'fate'
p311
I312
sS'insert'
p312
I320
sS'read'
p313
I314
sS'big'
p314
I315
sS'gonna'
p315
I316
sS'five'
p316
I317
sS'know'
p317
I318
sS'xe2'
p318
I319
sS'desk'
p319
I298
sS'using'
p320
I321
sS'd'
I324
sS'knock'
p321
I313
sS'like'
p322
I322
sS'success'
p323
I325
sS'sofa'
p324
I326
sS'ignore'
p325
I327
sS'stagger'
p326
I328
sS'continue'
p327
I329
sS't'
I330
sS'lose'
p328
I331
sS'x9cis'
p329
I332
sS'because'
p330
I333
sS'old'
p331
I334
sS'crowd'
p332
I335
sS'people'
p333
I336
sS'some'
p334
I337
sS'back'
p335
I338
sS'mighty'
p336
I340
sS'home'
p337
I341
sS'sprint'
p338
I342
sS'for'
p339
I343
sS'leap'
p340
I344
sS'overrated'
p341
I345
sS'sarah'
p342
I148
sS'run'
p343
I347
sS'business'
p344
I28
sS'ufo'
p345
I349
sS'stride'
p346
I350
sS'by'
p347
I351
sS'on'
p348
I352
sS'about'
p349
I353
sS'oh'
p350
I354
sS'of'
p351
I355
sS'dollars'
p352
I356
sS'shield'
p353
I357
sS'stand'
p354
I358
sS'classics'
p355
I359
sS'framed'
p356
I360
sS'down'
p357
I361
sS'brunette'
p358
I362
sS'stumble'
p359
I144
sS'brakes'
p360
I364
sS'her'
p361
I365
sS'there'
p362
I366
sS'fast'
p363
I367
sS'stuck'
p364
I368
sS'lot'
p365
I170
sS'forward'
p366
I370
sS'was'
p367
I371
sS'buy'
p368
I372
sS'north'
p369
I373
sS'offer'
p370
I374
sS'poster'
p371
I196
sS'but'
p372
I376
sS'cloth'
p373
I206
sS'gain'
p374
I378
sS'with'
p375
I379
sS'eat'
p376
I380
sS'he'
p377
I381
sS'throw'
p378
I382
sS'up'
p379
I384
sS'minutes'
p380
I385
sS'gone'
p381
I386
sS'deer'
p382
I387
sS'pie'
p383
I388
sS'doesn'
p384
I389
sS'an'
p385
I390
sS'examine'
p386
I271
sS'right'
p387
I392
sS'at'
p388
I393
sS'again'
p389
I394
sS'floor'
p390
I293
sS'nah'
p391
I396
sS'when'
p392
I397
sS'interested'
p393
I398
sS'you'
p394
I399
sS'out'
p395
I400
sS'brisk'
p396
I401
sS'teeth'
p397
I413
sS'dismantle'
p398
I403
sS'stay'
p399
I404
sS'loading'
p400
I405
sS'chance'
p401
I406
sS'tackle'
p402
I407
sS'deathspot'
p403
I408
sS'applause'
p404
I409
sS'bestowed'
p405
I383
sS'age'
p406
I411
sS'jacket'
p407
I412
sS'time'
p408
I402
sS'fresh'
p409
I414
sS'yell'
p410
I415
sS'starting'
p411
I416
sS'hello'
p412
I417
sS'rinse'
p413
I418
s.